Certificate:
    Data:
        Version: 3 (0x2)
        Serial Number:
            f7:2d:4c:5c:2b:f1:a5:01:39:6d:e3:9f:b4:39:e4:e3
    Signature Algorithm: sha256WithRSAEncryption
        Issuer: CN=Easy-RSA CA
        Validity
            Not Before: Feb  8 03:53:16 2018 GMT
            Not After : Feb  6 03:53:16 2028 GMT
        Subject: CN=filebeat2
        Subject Public Key Info:
            Public Key Algorithm: rsaEncryption
                Public-Key: (2048 bit)
                Modulus:
                    00:aa:e5:33:ca:54:52:e4:53:60:08:84:78:d8:31:
                    7a:f7:84:ec:49:69:12:26:2f:1a:04:d6:59:18:70:
                    fc:b3:90:9c:2c:a6:95:c1:a1:7f:20:f0:49:14:86:
                    cf:9e:15:db:52:9e:21:fb:d5:84:4a:e2:55:5c:29:
                    cf:f4:52:89:c4:65:0b:a0:ad:bf:dd:65:28:09:6d:
                    15:21:c2:e0:d7:72:fa:3d:dd:89:2b:d3:de:b2:8a:
                    c5:47:ba:5b:62:72:7c:17:30:e1:53:05:03:21:61:
                    6a:90:56:dd:1b:bf:16:87:a0:66:89:33:3b:03:7d:
                    be:a7:7b:94:95:cf:6a:89:dd:c5:b7:04:93:30:c6:
                    93:40:89:22:45:87:44:04:9c:52:4a:ad:bc:e7:e9:
                    08:69:01:bd:8b:40:cc:e9:c8:10:e6:52:a2:60:e2:
                    f4:d2:70:9c:65:0d:d7:4d:72:9e:6a:ff:31:99:e9:
                    f3:67:21:73:88:1d:b9:0f:ba:99:28:40:e3:e5:6a:
                    2b:14:6d:52:d2:58:3e:92:b3:71:0d:56:95:f8:01:
                    cb:fe:55:4b:78:52:60:98:63:6c:30:35:bc:24:fc:
                    16:a4:6e:ef:8c:a2:46:74:f6:e5:89:23:f0:31:29:
                    a3:32:94:39:b0:1e:55:ff:8f:c2:47:aa:a3:ca:5e:
                    3c:e9
                Exponent: 65537 (0x10001)
        X509v3 extensions:
            X509v3 Basic Constraints: 
                CA:FALSE
            X509v3 Subject Key Identifier: 
                47:7A:8C:E7:45:11:24:FB:2B:11:38:09:86:42:E2:F7:B2:68:2A:A0
            X509v3 Authority Key Identifier: 
                keyid:48:47:14:FD:72:FF:1E:F2:B1:BD:26:E9:B2:A1:3D:75:CA:B2:31:87
                DirName:/CN=Easy-RSA CA
                serial:CA:92:AA:19:40:F7:A3:13

            X509v3 Extended Key Usage: 
                TLS Web Client Authentication
            X509v3 Key Usage: 
                Digital Signature
    Signature Algorithm: sha256WithRSAEncryption
         a5:17:fb:1a:ae:69:a2:20:2e:2e:26:f5:86:fe:bf:b5:ed:76:
         0f:72:53:05:84:b1:7d:ee:93:0a:7f:d8:b4:82:d0:f1:8d:58:
         05:7c:07:d4:ec:1b:35:6c:29:94:90:d8:3e:e6:fa:50:26:65:
         36:b6:a1:fa:6a:38:f6:b5:a5:78:4d:8e:ca:64:1e:6a:60:a5:
         29:52:08:5e:df:40:e7:0f:df:c6:95:6a:39:0a:f3:36:05:68:
         ad:1a:29:72:09:d6:51:cc:5d:1f:fe:12:77:0f:81:84:a2:ce:
         0d:d8:4b:a1:55:12:48:9a:b0:92:2b:2c:fb:a5:6b:a6:d3:76:
         89:45:5c:6b:7d:e7:6a:c4:29:c5:36:94:e3:e9:0e:d5:76:39:
         2c:4a:b6:83:37:59:be:11:2b:00:74:c8:a4:52:9d:7b:de:94:
         bb:f8:9a:61:44:22:50:e0:37:bb:21:44:20:61:dd:47:e2:37:
         ba:4b:e5:58:93:79:6a:80:39:7d:41:1c:81:1c:c2:53:04:28:
         02:0c:9f:25:66:65:46:e2:01:3a:72:82:51:b4:5c:40:55:a4:
         0b:50:27:c0:93:ce:79:d7:95:ac:8d:11:da:4d:cf:bd:60:0d:
         8b:66:f2:ff:6d:a5:92:8f:01:dc:20:5c:41:26:d7:66:b9:0b:
         79:cf:fa:d6
-----BEGIN CERTIFICATE-----
MIIDTTCCAjWgAwIBAgIRAPctTFwr8aUBOW3jn7Q55OMwDQYJKoZIhvcNAQELBQAw
FjEUMBIGA1UEAwwLRWFzeS1SU0EgQ0EwHhcNMTgwMjA4MDM1MzE2WhcNMjgwMjA2
MDM1MzE2WjAUMRIwEAYDVQQDDAlmaWxlYmVhdDIwggEiMA0GCSqGSIb3DQEBAQUA
A4IBDwAwggEKAoIBAQCq5TPKVFLkU2AIhHjYMXr3hOxJaRImLxoE1lkYcPyzkJws
ppXBoX8g8EkUhs+eFdtSniH71YRK4lVcKc/0UonEZQugrb/dZSgJbRUhwuDXcvo9
3Ykr096yisVHulticnwXMOFTBQMhYWqQVt0bvxaHoGaJMzsDfb6ne5SVz2qJ3cW3
BJMwxpNAiSJFh0QEnFJKrbzn6QhpAb2LQMzpyBDmUqJg4vTScJxlDddNcp5q/zGZ
6fNnIXOIHbkPupkoQOPlaisUbVLSWD6Ss3ENVpX4Acv+VUt4UmCYY2wwNbwk/Bak
bu+MokZ09uWJI/AxKaMylDmwHlX/j8JHqqPKXjzpAgMBAAGjgZcwgZQwCQYDVR0T
BAIwADAdBgNVHQ4EFgQUR3qM50URJPsrETgJhkLi97JoKqAwRgYDVR0jBD8wPYAU
SEcU/XL/HvKxvSbpsqE9dcqyMYehGqQYMBYxFDASBgNVBAMMC0Vhc3ktUlNBIENB
ggkAypKqGUD3oxMwEwYDVR0lBAwwCgYIKwYBBQUHAwIwCwYDVR0PBAQDAgeAMA0G
CSqGSIb3DQEBCwUAA4IBAQClF/sarmmiIC4uJvWG/r+17XYPclMFhLF97pMKf9i0
gtDxjVgFfAfU7Bs1bCmUkNg+5vpQJmU2tqH6ajj2taV4TY7KZB5qYKUpUghe30Dn
D9/GlWo5CvM2BWitGilyCdZRzF0f/hJ3D4GEos4N2EuhVRJImrCSKyz7pWum03aJ
RVxrfedqxCnFNpTj6Q7VdjksSraDN1m+ESsAdMikUp173pS7+JphRCJQ4De7IUQg
Yd1H4je6S+VYk3lqgDl9QRyBHMJTBCgCDJ8lZmVG4gE6coJRtFxAVaQLUCfAk855
15WsjRHaTc+9YA2LZvL/baWSjwHcIFxBJtdmuQt5z/rW
-----END CERTIFICATE-----
